target datalayout = "e-m:e-p270:32:32-p271:32:32-p272:64:64-i64:64-i128:128-f80:128-n8:16:32:64-S128"
target triple = "x86_64-pc-linux-gnu"

%struct.wl_list = type { ptr, ptr }
%struct.SDL_WaylandDataDevice = type { ptr, ptr, ptr, i32, ptr, ptr, ptr, i8, i8, ptr, i32, ptr }
%struct.SDL_DBusContext = type { ptr, ptr, ptr, ptr, ptr, ptr, ptr, ptr, ptr, ptr, ptr, ptr, ptr, ptr, ptr, ptr, ptr, ptr, ptr, ptr, ptr, ptr, ptr, ptr, ptr, ptr, ptr, ptr, ptr, ptr, ptr, ptr, ptr, ptr, ptr, ptr, ptr, ptr, ptr, ptr, ptr, ptr, ptr, ptr, ptr, ptr, ptr, ptr, ptr, ptr }
%struct.SDL_WaylandDataOffer = type { ptr, %struct.wl_list, ptr, ptr, i32 }

@WAYLAND_wl_proxy_marshal_flags = external global ptr, align 8
@WAYLAND_wl_proxy_get_version = external global ptr, align 8
@WAYLAND_wl_proxy_get_id = external global ptr, align 8
@.str.11 = private unnamed_addr constant [36 x i8] c"application/vnd.portal.filetransfer\00", align 1
@.str.19 = private unnamed_addr constant [99 x i8] c". In wl_data_device_listener . data_device_handle_drop on data_offer 0x%08x in window %d serial %d\00", align 1
@.str.20 = private unnamed_addr constant [3 x i8] c"\0D\0A\00", align 1
@.str.21 = private unnamed_addr constant [86 x i8] c". In wl_data_device_listener . data_device_handle_drop on data_offer 0x%08x serial %d\00", align 1

; Function Attrs: inlinehint nounwind uwtable
define internal void @wl_data_offer_finish(ptr noundef %0) #2 {
  %2 = alloca ptr, align 8
  store ptr %0, ptr %2, align 8
  %3 = load ptr, ptr @WAYLAND_wl_proxy_marshal_flags, align 8
  %4 = load ptr, ptr %2, align 8
  %5 = load ptr, ptr @WAYLAND_wl_proxy_get_version, align 8
  %6 = load ptr, ptr %2, align 8
  %7 = call i32 %5(ptr noundef %6)
  %8 = call ptr (ptr, i32, ptr, i32, i32, ...) %3(ptr noundef %4, i32 noundef 3, ptr noundef null, i32 noundef %7, i32 noundef 0)
  ret void
}

; Function Attrs: inlinehint nounwind uwtable
define internal i32 @wl_data_offer_get_version(ptr noundef %0) #2 {
  %2 = alloca ptr, align 8
  store ptr %0, ptr %2, align 8
  %3 = load ptr, ptr @WAYLAND_wl_proxy_get_version, align 8
  %4 = load ptr, ptr %2, align 8
  %5 = call i32 %3(ptr noundef %4)
  ret i32 %5
}

; Function Attrs: nounwind uwtable
define internal void @data_device_handle_drop(ptr noundef %0, ptr noundef %1) #0 {
  %3 = alloca ptr, align 8
  %4 = alloca ptr, align 8
  %5 = alloca ptr, align 8
  %6 = alloca i64, align 8
  %7 = alloca i8, align 1
  %8 = alloca ptr, align 8
  %9 = alloca ptr, align 8
  %10 = alloca i32, align 4
  %11 = alloca ptr, align 8
  %12 = alloca i32, align 4
  %13 = alloca ptr, align 8
  %14 = alloca ptr, align 8
  %15 = alloca ptr, align 8
  %16 = alloca ptr, align 8
  %17 = alloca ptr, align 8
  store ptr %0, ptr %3, align 8
  store ptr %1, ptr %4, align 8
  call void @llvm.lifetime.start.p0(i64 8, ptr %5) #10
  %18 = load ptr, ptr %3, align 8
  store ptr %18, ptr %5, align 8
  %19 = load ptr, ptr %5, align 8
  %20 = getelementptr inbounds nuw %struct.SDL_WaylandDataDevice, ptr %19, i32 0, i32 4
  %21 = load ptr, ptr %20, align 8
  %22 = icmp ne ptr %21, null
  br i1 %22, label %23, label %209

23:                                               ; preds = %2
  %24 = load ptr, ptr %5, align 8
  %25 = getelementptr inbounds nuw %struct.SDL_WaylandDataDevice, ptr %24, i32 0, i32 9
  %26 = load ptr, ptr %25, align 8
  %27 = icmp ne ptr %26, null
  br i1 %27, label %28, label %209

28:                                               ; preds = %23
  %29 = load ptr, ptr %5, align 8
  %30 = getelementptr inbounds nuw %struct.SDL_WaylandDataDevice, ptr %29, i32 0, i32 7
  %31 = load i8, ptr %30, align 8, !range !7, !noundef !8
  %32 = trunc i8 %31 to i1
  br i1 %32, label %38, label %33

33:                                               ; preds = %28
  %34 = load ptr, ptr %5, align 8
  %35 = getelementptr inbounds nuw %struct.SDL_WaylandDataDevice, ptr %34, i32 0, i32 8
  %36 = load i8, ptr %35, align 1, !range !7, !noundef !8
  %37 = trunc i8 %36 to i1
  br i1 %37, label %38, label %209

38:                                               ; preds = %33, %28
  %39 = load ptr, ptr @WAYLAND_wl_proxy_get_id, align 8
  %40 = load ptr, ptr %5, align 8
  %41 = getelementptr inbounds nuw %struct.SDL_WaylandDataDevice, ptr %40, i32 0, i32 4
  %42 = load ptr, ptr %41, align 8
  %43 = getelementptr inbounds nuw %struct.SDL_WaylandDataOffer, ptr %42, i32 0, i32 0
  %44 = load ptr, ptr %43, align 8
  %45 = call i32 %39(ptr noundef %44)
  %46 = load ptr, ptr %5, align 8
  %47 = getelementptr inbounds nuw %struct.SDL_WaylandDataDevice, ptr %46, i32 0, i32 9
  %48 = load ptr, ptr %47, align 8
  %49 = call i32 @SDL_GetWindowID_REAL(ptr noundef %48)
  %50 = load ptr, ptr %5, align 8
  %51 = getelementptr inbounds nuw %struct.SDL_WaylandDataDevice, ptr %50, i32 0, i32 3
  %52 = load i32, ptr %51, align 8
  call void (i32, ptr, ...) @SDL_LogTrace_REAL(i32 noundef 7, ptr noundef @.str.19, i32 noundef %45, i32 noundef %49, i32 noundef %52)
  call void @llvm.lifetime.start.p0(i64 8, ptr %6) #10
  call void @llvm.lifetime.start.p0(i64 1, ptr %7) #10
  store i8 0, ptr %7, align 1
  %53 = load ptr, ptr %5, align 8
  %54 = getelementptr inbounds nuw %struct.SDL_WaylandDataDevice, ptr %53, i32 0, i32 4
  %55 = load ptr, ptr %54, align 8
  %56 = call zeroext i1 @Wayland_data_offer_has_mime(ptr noundef %55, ptr noundef @.str.11)
  br i1 %56, label %57, label %107

57:                                               ; preds = %38
  call void @llvm.lifetime.start.p0(i64 8, ptr %8) #10
  %58 = load ptr, ptr %5, align 8
  %59 = getelementptr inbounds nuw %struct.SDL_WaylandDataDevice, ptr %58, i32 0, i32 4
  %60 = load ptr, ptr %59, align 8
  %61 = call ptr @Wayland_data_offer_receive(ptr noundef %60, ptr noundef @.str.11, ptr noundef %6)
  store ptr %61, ptr %8, align 8
  %62 = load ptr, ptr %8, align 8
  %63 = icmp ne ptr %62, null
  br i1 %63, label %64, label %106

64:                                               ; preds = %57
  call void @llvm.lifetime.start.p0(i64 8, ptr %9) #10
  %65 = call ptr @SDL_DBus_GetContext()
  store ptr %65, ptr %9, align 8
  %66 = load ptr, ptr %9, align 8
  %67 = icmp ne ptr %66, null
  br i1 %67, label %68, label %104

68:                                               ; preds = %64
  call void @llvm.lifetime.start.p0(i64 4, ptr %10) #10
  store i32 0, ptr %10, align 4
  call void @llvm.lifetime.start.p0(i64 8, ptr %11) #10
  %69 = load ptr, ptr %8, align 8
  %70 = call ptr @SDL_DBus_DocumentsPortalRetrieveFiles(ptr noundef %69, ptr noundef %10)
  store ptr %70, ptr %11, align 8
  %71 = load ptr, ptr %11, align 8
  %72 = icmp ne ptr %71, null
  br i1 %72, label %73, label %103

73:                                               ; preds = %68
  %74 = load i32, ptr %10, align 4
  %75 = icmp sgt i32 %74, 0
  br i1 %75, label %76, label %103

76:                                               ; preds = %73
  call void @llvm.lifetime.start.p0(i64 4, ptr %12) #10
  store i32 0, ptr %12, align 4
  br label %77

77:                                               ; preds = %91, %76
  %78 = load i32, ptr %12, align 4
  %79 = load i32, ptr %10, align 4
  %80 = icmp slt i32 %78, %79
  br i1 %80, label %81, label %94

81:                                               ; preds = %77
  %82 = load ptr, ptr %5, align 8
  %83 = getelementptr inbounds nuw %struct.SDL_WaylandDataDevice, ptr %82, i32 0, i32 9
  %84 = load ptr, ptr %83, align 8
  %85 = load ptr, ptr %11, align 8
  %86 = load i32, ptr %12, align 4
  %87 = sext i32 %86 to i64
  %88 = getelementptr inbounds ptr, ptr %85, i64 %87
  %89 = load ptr, ptr %88, align 8
  %90 = call zeroext i1 @SDL_SendDropFile(ptr noundef %84, ptr noundef null, ptr noundef %89)
  br label %91

91:                                               ; preds = %81
  %92 = load i32, ptr %12, align 4
  %93 = add nsw i32 %92, 1
  store i32 %93, ptr %12, align 4
  br label %77, !llvm.loop !24

94:                                               ; preds = %77
  %95 = load ptr, ptr %9, align 8
  %96 = getelementptr inbounds nuw %struct.SDL_DBusContext, ptr %95, i32 0, i32 48
  %97 = load ptr, ptr %96, align 8
  %98 = load ptr, ptr %11, align 8
  call void %97(ptr noundef %98)
  %99 = load ptr, ptr %5, align 8
  %100 = getelementptr inbounds nuw %struct.SDL_WaylandDataDevice, ptr %99, i32 0, i32 9
  %101 = load ptr, ptr %100, align 8
  %102 = call zeroext i1 @SDL_SendDropComplete(ptr noundef %101)
  store i8 1, ptr %7, align 1
  call void @llvm.lifetime.end.p0(i64 4, ptr %12) #10
  br label %103

103:                                              ; preds = %94, %73, %68
  call void @llvm.lifetime.end.p0(i64 8, ptr %11) #10
  call void @llvm.lifetime.end.p0(i64 4, ptr %10) #10
  br label %104

104:                                              ; preds = %103, %64
  %105 = load ptr, ptr %8, align 8
  call void @SDL_free_REAL(ptr noundef %105)
  call void @llvm.lifetime.end.p0(i64 8, ptr %9) #10
  br label %106

106:                                              ; preds = %104, %57
  call void @llvm.lifetime.end.p0(i64 8, ptr %8) #10
  br label %107

107:                                              ; preds = %106, %38
  %108 = load i8, ptr %7, align 1, !range !7, !noundef !8
  %109 = trunc i8 %108 to i1
  br i1 %109, label %191, label %110

110:                                              ; preds = %107
  call void @llvm.lifetime.start.p0(i64 8, ptr %13) #10
  %111 = load ptr, ptr %5, align 8
  %112 = getelementptr inbounds nuw %struct.SDL_WaylandDataDevice, ptr %111, i32 0, i32 4
  %113 = load ptr, ptr %112, align 8
  %114 = load ptr, ptr %5, align 8
  %115 = getelementptr inbounds nuw %struct.SDL_WaylandDataDevice, ptr %114, i32 0, i32 6
  %116 = load ptr, ptr %115, align 8
  %117 = call ptr @Wayland_data_offer_receive(ptr noundef %113, ptr noundef %116, ptr noundef %6)
  store ptr %117, ptr %13, align 8
  %118 = load ptr, ptr %5, align 8
  %119 = getelementptr inbounds nuw %struct.SDL_WaylandDataDevice, ptr %118, i32 0, i32 7
  %120 = load i8, ptr %119, align 8, !range !7, !noundef !8
  %121 = trunc i8 %120 to i1
  br i1 %121, label %122, label %156

122:                                              ; preds = %110
  %123 = load ptr, ptr %13, align 8
  %124 = icmp ne ptr %123, null
  br i1 %124, label %125, label %150

125:                                              ; preds = %122
  call void @llvm.lifetime.start.p0(i64 8, ptr %14) #10
  store ptr null, ptr %14, align 8
  call void @llvm.lifetime.start.p0(i64 8, ptr %15) #10
  %126 = load ptr, ptr %13, align 8
  %127 = call ptr @SDL_strtok_r_REAL(ptr noundef %126, ptr noundef @.str.20, ptr noundef %14)
  store ptr %127, ptr %15, align 8
  br label %128

128:                                              ; preds = %142, %125
  %129 = load ptr, ptr %15, align 8
  %130 = icmp ne ptr %129, null
  br i1 %130, label %131, label %144

131:                                              ; preds = %128
  %132 = load ptr, ptr %15, align 8
  %133 = load ptr, ptr %15, align 8
  %134 = call i32 @SDL_URIToLocal(ptr noundef %132, ptr noundef %133)
  %135 = icmp sge i32 %134, 0
  br i1 %135, label %136, label %142

136:                                              ; preds = %131
  %137 = load ptr, ptr %5, align 8
  %138 = getelementptr inbounds nuw %struct.SDL_WaylandDataDevice, ptr %137, i32 0, i32 9
  %139 = load ptr, ptr %138, align 8
  %140 = load ptr, ptr %15, align 8
  %141 = call zeroext i1 @SDL_SendDropFile(ptr noundef %139, ptr noundef null, ptr noundef %140)
  br label %142

142:                                              ; preds = %136, %131
  %143 = call ptr @SDL_strtok_r_REAL(ptr noundef null, ptr noundef @.str.20, ptr noundef %14)
  store ptr %143, ptr %15, align 8
  br label %128, !llvm.loop !25

144:                                              ; preds = %128
  %145 = load ptr, ptr %13, align 8
  call void @SDL_free_REAL(ptr noundef %145)
  %146 = load ptr, ptr %5, align 8
  %147 = getelementptr inbounds nuw %struct.SDL_WaylandDataDevice, ptr %146, i32 0, i32 9
  %148 = load ptr, ptr %147, align 8
  %149 = call zeroext i1 @SDL_SendDropComplete(ptr noundef %148)
  call void @llvm.lifetime.end.p0(i64 8, ptr %15) #10
  call void @llvm.lifetime.end.p0(i64 8, ptr %14) #10
  br label %155

150:                                              ; preds = %122
  %151 = load ptr, ptr %5, align 8
  %152 = getelementptr inbounds nuw %struct.SDL_WaylandDataDevice, ptr %151, i32 0, i32 9
  %153 = load ptr, ptr %152, align 8
  %154 = call zeroext i1 @SDL_SendDropComplete(ptr noundef %153)
  br label %155

155:                                              ; preds = %150, %144
  store i8 1, ptr %7, align 1
  br label %190

156:                                              ; preds = %110
  %157 = load ptr, ptr %5, align 8
  %158 = getelementptr inbounds nuw %struct.SDL_WaylandDataDevice, ptr %157, i32 0, i32 8
  %159 = load i8, ptr %158, align 1, !range !7, !noundef !8
  %160 = trunc i8 %159 to i1
  br i1 %160, label %161, label %189

161:                                              ; preds = %156
  %162 = load ptr, ptr %13, align 8
  %163 = icmp ne ptr %162, null
  br i1 %163, label %164, label %183

164:                                              ; preds = %161
  call void @llvm.lifetime.start.p0(i64 8, ptr %16) #10
  store ptr null, ptr %16, align 8
  call void @llvm.lifetime.start.p0(i64 8, ptr %17) #10
  %165 = load ptr, ptr %13, align 8
  %166 = call ptr @SDL_strtok_r_REAL(ptr noundef %165, ptr noundef @.str.20, ptr noundef %16)
  store ptr %166, ptr %17, align 8
  br label %167

167:                                              ; preds = %170, %164
  %168 = load ptr, ptr %17, align 8
  %169 = icmp ne ptr %168, null
  br i1 %169, label %170, label %177

170:                                              ; preds = %167
  %171 = load ptr, ptr %5, align 8
  %172 = getelementptr inbounds nuw %struct.SDL_WaylandDataDevice, ptr %171, i32 0, i32 9
  %173 = load ptr, ptr %172, align 8
  %174 = load ptr, ptr %17, align 8
  %175 = call zeroext i1 @SDL_SendDropText(ptr noundef %173, ptr noundef %174)
  %176 = call ptr @SDL_strtok_r_REAL(ptr noundef null, ptr noundef @.str.20, ptr noundef %16)
  store ptr %176, ptr %17, align 8
  br label %167, !llvm.loop !26

177:                                              ; preds = %167
  %178 = load ptr, ptr %13, align 8
  call void @SDL_free_REAL(ptr noundef %178)
  %179 = load ptr, ptr %5, align 8
  %180 = getelementptr inbounds nuw %struct.SDL_WaylandDataDevice, ptr %179, i32 0, i32 9
  %181 = load ptr, ptr %180, align 8
  %182 = call zeroext i1 @SDL_SendDropComplete(ptr noundef %181)
  call void @llvm.lifetime.end.p0(i64 8, ptr %17) #10
  call void @llvm.lifetime.end.p0(i64 8, ptr %16) #10
  br label %188

183:                                              ; preds = %161
  %184 = load ptr, ptr %5, align 8
  %185 = getelementptr inbounds nuw %struct.SDL_WaylandDataDevice, ptr %184, i32 0, i32 9
  %186 = load ptr, ptr %185, align 8
  %187 = call zeroext i1 @SDL_SendDropComplete(ptr noundef %186)
  br label %188

188:                                              ; preds = %183, %177
  store i8 1, ptr %7, align 1
  br label %189

189:                                              ; preds = %188, %156
  br label %190

190:                                              ; preds = %189, %155
  call void @llvm.lifetime.end.p0(i64 8, ptr %13) #10
  br label %191

191:                                              ; preds = %190, %107
  %192 = load i8, ptr %7, align 1, !range !7, !noundef !8
  %193 = trunc i8 %192 to i1
  br i1 %193, label %194, label %208

194:                                              ; preds = %191
  %195 = load ptr, ptr %5, align 8
  %196 = getelementptr inbounds nuw %struct.SDL_WaylandDataDevice, ptr %195, i32 0, i32 4
  %197 = load ptr, ptr %196, align 8
  %198 = getelementptr inbounds nuw %struct.SDL_WaylandDataOffer, ptr %197, i32 0, i32 0
  %199 = load ptr, ptr %198, align 8
  %200 = call i32 @wl_data_offer_get_version(ptr noundef %199)
  %201 = icmp uge i32 %200, 3
  br i1 %201, label %202, label %208

202:                                              ; preds = %194
  %203 = load ptr, ptr %5, align 8
  %204 = getelementptr inbounds nuw %struct.SDL_WaylandDataDevice, ptr %203, i32 0, i32 4
  %205 = load ptr, ptr %204, align 8
  %206 = getelementptr inbounds nuw %struct.SDL_WaylandDataOffer, ptr %205, i32 0, i32 0
  %207 = load ptr, ptr %206, align 8
  call void @wl_data_offer_finish(ptr noundef %207)
  br label %208

208:                                              ; preds = %202, %194, %191
  call void @llvm.lifetime.end.p0(i64 1, ptr %7) #10
  call void @llvm.lifetime.end.p0(i64 8, ptr %6) #10
  br label %210

209:                                              ; preds = %33, %23, %2
  call void (i32, ptr, ...) @SDL_LogTrace_REAL(i32 noundef 7, ptr noundef @.str.21, i32 noundef -1, i32 noundef -1)
  br label %210

210:                                              ; preds = %209, %208
  %211 = load ptr, ptr %5, align 8
  %212 = getelementptr inbounds nuw %struct.SDL_WaylandDataDevice, ptr %211, i32 0, i32 4
  %213 = load ptr, ptr %212, align 8
  call void @Wayland_data_offer_destroy(ptr noundef %213)
  %214 = load ptr, ptr %5, align 8
  %215 = getelementptr inbounds nuw %struct.SDL_WaylandDataDevice, ptr %214, i32 0, i32 4
  store ptr null, ptr %215, align 8
  call void @llvm.lifetime.end.p0(i64 8, ptr %5) #10
  ret void
}