; Function Attrs: nounwind uwtable
define internal void @data_device_handle_drop(ptr noundef captures(none) %0, ptr readnone captures(none) %1) #0 {
  %3 = alloca i64, align 8
  %4 = alloca i32, align 4
  %5 = alloca ptr, align 8
  %6 = alloca ptr, align 8
  %7 = getelementptr inbounds nuw i8, ptr %0, i64 32
  %8 = load ptr, ptr %7, align 8
  %.not = icmp eq ptr %8, null
  br i1 %.not, label %102, label %9

9:                                                ; preds = %2
  %10 = getelementptr inbounds nuw i8, ptr %0, i64 64
  %11 = load ptr, ptr %10, align 8
  %.not59 = icmp eq ptr %11, null
  br i1 %.not59, label %102, label %12

12:                                               ; preds = %9
  %13 = getelementptr inbounds nuw i8, ptr %0, i64 56
  %14 = load i8, ptr %13, align 8, !range !6, !noundef !7
  %15 = trunc nuw i8 %14 to i1
  br i1 %15, label %20, label %16

16:                                               ; preds = %12
  %17 = getelementptr inbounds nuw i8, ptr %0, i64 57
  %18 = load i8, ptr %17, align 1, !range !6, !noundef !7
  %19 = trunc nuw i8 %18 to i1
  br i1 %19, label %20, label %102

20:                                               ; preds = %16, %12
  %21 = load ptr, ptr @WAYLAND_wl_proxy_get_id, align 8
  %22 = load ptr, ptr %8, align 8
  %23 = tail call i32 %21(ptr noundef %22) #12
  %24 = load ptr, ptr %10, align 8
  %25 = tail call i32 @SDL_GetWindowID_REAL(ptr noundef %24) #12
  %26 = getelementptr inbounds nuw i8, ptr %0, i64 24
  %27 = load i32, ptr %26, align 8
  tail call void (i32, ptr, ...) @SDL_LogTrace_REAL(i32 noundef 7, ptr noundef nonnull @.str.19, i32 noundef %23, i32 noundef %25, i32 noundef %27) #12
  call void @llvm.lifetime.start.p0(i64 8, ptr nonnull %3) #12
  %28 = load ptr, ptr %7, align 8
  %29 = tail call zeroext i1 @Wayland_data_offer_has_mime(ptr noundef %28, ptr noundef nonnull @.str.11) #12
  br i1 %29, label %30, label %.thread

30:                                               ; preds = %20
  %31 = load ptr, ptr %7, align 8
  %32 = call ptr @Wayland_data_offer_receive(ptr noundef %31, ptr noundef nonnull @.str.11, ptr noundef nonnull %3) #12
  %.not60 = icmp eq ptr %32, null
  br i1 %.not60, label %.thread, label %33

33:                                               ; preds = %30
  %34 = call ptr @SDL_DBus_GetContext() #12
  %.not61 = icmp eq ptr %34, null
  br i1 %.not61, label %.thread.sink.split, label %35

35:                                               ; preds = %33
  call void @llvm.lifetime.start.p0(i64 4, ptr nonnull %4) #12
  store i32 0, ptr %4, align 4
  %36 = call ptr @SDL_DBus_DocumentsPortalRetrieveFiles(ptr noundef nonnull %32, ptr noundef nonnull %4) #12
  %37 = icmp ne ptr %36, null
  %38 = load i32, ptr %4, align 4
  %39 = icmp sgt i32 %38, 0
  %or.cond = select i1 %37, i1 %39, i1 false
  br i1 %or.cond, label %.lr.ph, label %51

.lr.ph:                                           ; preds = %35, %.lr.ph
  %indvars.iv = phi i64 [ %indvars.iv.next, %.lr.ph ], [ 0, %35 ]
  %40 = load ptr, ptr %10, align 8
  %41 = getelementptr inbounds nuw ptr, ptr %36, i64 %indvars.iv
  %42 = load ptr, ptr %41, align 8
  %43 = call zeroext i1 @SDL_SendDropFile(ptr noundef %40, ptr noundef null, ptr noundef %42) #12
  %indvars.iv.next = add nuw nsw i64 %indvars.iv, 1
  %44 = load i32, ptr %4, align 4
  %45 = sext i32 %44 to i64
  %46 = icmp slt i64 %indvars.iv.next, %45
  br i1 %46, label %.lr.ph, label %.thread70, !llvm.loop !25

.thread70:                                        ; preds = %.lr.ph
  %47 = getelementptr inbounds nuw i8, ptr %34, i64 384
  %48 = load ptr, ptr %47, align 8
  call void %48(ptr noundef nonnull %36) #12
  %49 = load ptr, ptr %10, align 8
  %50 = call zeroext i1 @SDL_SendDropComplete(ptr noundef %49) #12
  call void @llvm.lifetime.end.p0(i64 4, ptr nonnull %4) #12
  call void @SDL_free_REAL(ptr noundef nonnull %32) #12
  br label %88

51:                                               ; preds = %35
  call void @llvm.lifetime.end.p0(i64 4, ptr nonnull %4) #12
  br label %.thread.sink.split

.thread.sink.split:                               ; preds = %33, %51
  call void @SDL_free_REAL(ptr noundef nonnull %32) #12
  br label %.thread

.thread:                                          ; preds = %.thread.sink.split, %30, %20
  %52 = load ptr, ptr %7, align 8
  %53 = getelementptr inbounds nuw i8, ptr %0, i64 48
  %54 = load ptr, ptr %53, align 8
  %55 = call ptr @Wayland_data_offer_receive(ptr noundef %52, ptr noundef %54, ptr noundef nonnull %3) #12
  %56 = load i8, ptr %13, align 8, !range !6, !noundef !7
  %57 = trunc nuw i8 %56 to i1
  br i1 %57, label %58, label %73

58:                                               ; preds = %.thread
  %.not64 = icmp eq ptr %55, null
  br i1 %.not64, label %70, label %59

59:                                               ; preds = %58
  call void @llvm.lifetime.start.p0(i64 8, ptr nonnull %5) #12
  store ptr null, ptr %5, align 8
  %60 = call ptr @SDL_strtok_r_REAL(ptr noundef nonnull %55, ptr noundef nonnull @.str.20, ptr noundef nonnull %5) #12
  %.not6579 = icmp eq ptr %60, null
  br i1 %.not6579, label %._crit_edge83, label %.lr.ph82

.lr.ph82:                                         ; preds = %59, %66
  %.05180 = phi ptr [ %67, %66 ], [ %60, %59 ]
  %61 = call i32 @SDL_URIToLocal(ptr noundef nonnull %.05180, ptr noundef nonnull %.05180) #12
  %62 = icmp sgt i32 %61, -1
  br i1 %62, label %63, label %66

63:                                               ; preds = %.lr.ph82
  %64 = load ptr, ptr %10, align 8
  %65 = call zeroext i1 @SDL_SendDropFile(ptr noundef %64, ptr noundef null, ptr noundef nonnull %.05180) #12
  br label %66

66:                                               ; preds = %63, %.lr.ph82
  %67 = call ptr @SDL_strtok_r_REAL(ptr noundef null, ptr noundef nonnull @.str.20, ptr noundef nonnull %5) #12
  %.not65 = icmp eq ptr %67, null
  br i1 %.not65, label %._crit_edge83, label %.lr.ph82, !llvm.loop !26

._crit_edge83:                                    ; preds = %66, %59
  call void @SDL_free_REAL(ptr noundef nonnull %55) #12
  %68 = load ptr, ptr %10, align 8
  %69 = call zeroext i1 @SDL_SendDropComplete(ptr noundef %68) #12
  call void @llvm.lifetime.end.p0(i64 8, ptr nonnull %5) #12
  br label %88

70:                                               ; preds = %58
  %71 = load ptr, ptr %10, align 8
  %72 = call zeroext i1 @SDL_SendDropComplete(ptr noundef %71) #12
  br label %88

73:                                               ; preds = %.thread
  %74 = getelementptr inbounds nuw i8, ptr %0, i64 57
  %75 = load i8, ptr %74, align 1, !range !6, !noundef !7
  %76 = trunc nuw i8 %75 to i1
  br i1 %76, label %77, label %101

77:                                               ; preds = %73
  %.not62 = icmp eq ptr %55, null
  br i1 %.not62, label %85, label %78

78:                                               ; preds = %77
  call void @llvm.lifetime.start.p0(i64 8, ptr nonnull %6) #12
  store ptr null, ptr %6, align 8
  %79 = call ptr @SDL_strtok_r_REAL(ptr noundef nonnull %55, ptr noundef nonnull @.str.20, ptr noundef nonnull %6) #12
  %.not6376 = icmp eq ptr %79, null
  br i1 %.not6376, label %._crit_edge, label %.lr.ph78

.lr.ph78:                                         ; preds = %78, %.lr.ph78
  %.077 = phi ptr [ %82, %.lr.ph78 ], [ %79, %78 ]
  %80 = load ptr, ptr %10, align 8
  %81 = call zeroext i1 @SDL_SendDropText(ptr noundef %80, ptr noundef nonnull %.077) #12
  %82 = call ptr @SDL_strtok_r_REAL(ptr noundef null, ptr noundef nonnull @.str.20, ptr noundef nonnull %6) #12
  %.not63 = icmp eq ptr %82, null
  br i1 %.not63, label %._crit_edge, label %.lr.ph78, !llvm.loop !27

._crit_edge:                                      ; preds = %.lr.ph78, %78
  call void @SDL_free_REAL(ptr noundef nonnull %55) #12
  %83 = load ptr, ptr %10, align 8
  %84 = call zeroext i1 @SDL_SendDropComplete(ptr noundef %83) #12
  call void @llvm.lifetime.end.p0(i64 8, ptr nonnull %6) #12
  br label %88

85:                                               ; preds = %77
  %86 = load ptr, ptr %10, align 8
  %87 = call zeroext i1 @SDL_SendDropComplete(ptr noundef %86) #12
  br label %88

88:                                               ; preds = %70, %._crit_edge83, %85, %._crit_edge, %.thread70
  %89 = load ptr, ptr %7, align 8
  %90 = load ptr, ptr %89, align 8
  %91 = load ptr, ptr @WAYLAND_wl_proxy_get_version, align 8
  %92 = call i32 %91(ptr noundef %90) #12
  %93 = icmp ugt i32 %92, 2
  br i1 %93, label %94, label %101

94:                                               ; preds = %88
  %95 = load ptr, ptr %7, align 8
  %96 = load ptr, ptr %95, align 8
  %97 = load ptr, ptr @WAYLAND_wl_proxy_marshal_flags, align 8
  %98 = load ptr, ptr @WAYLAND_wl_proxy_get_version, align 8
  %99 = call i32 %98(ptr noundef %96) #12
  %100 = call ptr (ptr, i32, ptr, i32, i32, ...) %97(ptr noundef %96, i32 noundef 3, ptr noundef null, i32 noundef %99, i32 noundef 0) #12
  br label %101

101:                                              ; preds = %73, %94, %88
  call void @llvm.lifetime.end.p0(i64 8, ptr nonnull %3) #12
  br label %103

102:                                              ; preds = %16, %9, %2
  tail call void (i32, ptr, ...) @SDL_LogTrace_REAL(i32 noundef 7, ptr noundef nonnull @.str.21, i32 noundef -1, i32 noundef -1) #12
  br label %103

103:                                              ; preds = %102, %101
  %104 = load ptr, ptr %7, align 8
  call void @Wayland_data_offer_destroy(ptr noundef %104) #12
  store ptr null, ptr %7, align 8
  ret void
}